target datalayout = "e-m:e-p270:32:32-p271:32:32-p272:64:64-i64:64-i128:128-f80:128-n8:16:32:64-S128"
target triple = "x86_64-pc-linux-gnu"

%struct.GDBUserState = type { i32, ptr, i32, i8, [16 x i64], i8, i32, [2 x i32], i32, i32, [128 x i8], i64 }

@gdbserver_user_state = internal global %struct.GDBUserState zeroinitializer, align 8

; Function Attrs: nounwind sspstrong uwtable
define dso_local i32 @gdb_get_char() #0 {
  %1 = alloca i32, align 4
  %2 = alloca i8, align 1
  %3 = alloca i32, align 4
  %4 = alloca i32, align 4
  call void @llvm.lifetime.start.p0(i64 1, ptr %2) #14
  store i8 0, ptr %2, align 1, !annotation !4
  call void @llvm.lifetime.start.p0(i64 4, ptr %3) #14
  store i32 0, ptr %3, align 4, !annotation !4
  br label %5

5:                                                ; preds = %29, %0
  %6 = load i32, ptr @gdbserver_user_state, align 8
  %7 = call i64 @recv(i32 noundef %6, ptr noundef %2, i64 noundef 1, i32 noundef 0)
  %8 = trunc i64 %7 to i32
  store i32 %8, ptr %3, align 4
  %9 = load i32, ptr %3, align 4
  %10 = icmp slt i32 %9, 0
  br i1 %10, label %11, label %22

11:                                               ; preds = %5
  %12 = call ptr @__errno_location() #15
  %13 = load i32, ptr %12, align 4
  %14 = icmp eq i32 %13, 104
  br i1 %14, label %15, label %16

15:                                               ; preds = %11
  store i32 -1, ptr @gdbserver_user_state, align 8
  br label %16

16:                                               ; preds = %15, %11
  %17 = call ptr @__errno_location() #15
  %18 = load i32, ptr %17, align 4
  %19 = icmp ne i32 %18, 4
  br i1 %19, label %20, label %21

20:                                               ; preds = %16
  store i32 -1, ptr %1, align 4
  store i32 1, ptr %4, align 4
  br label %33

21:                                               ; preds = %16
  br label %29

22:                                               ; preds = %5
  %23 = load i32, ptr %3, align 4
  %24 = icmp eq i32 %23, 0
  br i1 %24, label %25, label %28

25:                                               ; preds = %22
  %26 = load i32, ptr @gdbserver_user_state, align 8
  %27 = call i32 @close(i32 noundef %26)
  store i32 -1, ptr @gdbserver_user_state, align 8
  store i32 -1, ptr %1, align 4
  store i32 1, ptr %4, align 4
  br label %33

28:                                               ; preds = %22
  br label %30

29:                                               ; preds = %21
  br label %5

30:                                               ; preds = %28
  %31 = load i8, ptr %2, align 1
  %32 = zext i8 %31 to i32
  store i32 %32, ptr %1, align 4
  store i32 1, ptr %4, align 4
  br label %33

33:                                               ; preds = %30, %25, %20
  call void @llvm.lifetime.end.p0(i64 4, ptr %3) #14
  call void @llvm.lifetime.end.p0(i64 1, ptr %2) #14
  %34 = load i32, ptr %1, align 4
  ret i32 %34
}